target datalayout = "e-m:e-p270:32:32-p271:32:32-p272:64:64-i64:64-i128:128-f80:128-n8:16:32:64-S128"
target triple = "x86_64-pc-linux-gnu"

%struct.test_fixture = type { ptr, ptr, ptr, i32, i32, ptr }

@.str.14 = private unnamed_addr constant [34 x i8] c"../openssl/test/cmp_client_test.c\00", align 1
@__func__.test_exec_CR_ses = private unnamed_addr constant [17 x i8] c"test_exec_CR_ses\00", align 1

; Function Attrs: inlinehint nounwind uwtable
define internal ptr @ossl_check_X509_sk_type(ptr noundef %0) #3 {
  %2 = alloca ptr, align 8
  store ptr %0, ptr %2, align 8, !tbaa !32
  %3 = load ptr, ptr %2, align 8, !tbaa !32
  ret ptr %3
}

; Function Attrs: nounwind uwtable
define internal void @tear_down(ptr noundef %0) #0 {
  %2 = alloca ptr, align 8
  store ptr %0, ptr %2, align 8, !tbaa !17
  %3 = load ptr, ptr %2, align 8, !tbaa !17
  %4 = getelementptr inbounds nuw %struct.test_fixture, ptr %3, i32 0, i32 1
  %5 = load ptr, ptr %4, align 8, !tbaa !29
  call void @OSSL_CMP_CTX_free(ptr noundef %5)
  %6 = load ptr, ptr %2, align 8, !tbaa !17
  %7 = getelementptr inbounds nuw %struct.test_fixture, ptr %6, i32 0, i32 2
  %8 = load ptr, ptr %7, align 8, !tbaa !21
  call void @ossl_cmp_mock_srv_free(ptr noundef %8)
  %9 = load ptr, ptr %2, align 8, !tbaa !17
  %10 = getelementptr inbounds nuw %struct.test_fixture, ptr %9, i32 0, i32 5
  %11 = load ptr, ptr %10, align 8, !tbaa !28
  %12 = call ptr @ossl_check_X509_sk_type(ptr noundef %11)
  call void @OPENSSL_sk_free(ptr noundef %12)
  %13 = load ptr, ptr %2, align 8, !tbaa !17
  call void @CRYPTO_free(ptr noundef %13, ptr noundef @.str.14, i32 noundef 51)
  ret void
}

; Function Attrs: nounwind uwtable
define internal i32 @test_exec_CR_ses(i32 noundef %0, i32 noundef %1, i32 noundef %2) #0 {
  %4 = alloca i32, align 4
  %5 = alloca i32, align 4
  %6 = alloca i32, align 4
  %7 = alloca i32, align 4
  %8 = alloca ptr, align 8
  %9 = alloca i32, align 4
  %10 = alloca i32, align 4
  store i32 %0, ptr %5, align 4, !tbaa !19
  store i32 %1, ptr %6, align 4, !tbaa !19
  store i32 %2, ptr %7, align 4, !tbaa !19
  call void @llvm.lifetime.start.p0(i64 8, ptr %8) #4
  %11 = call ptr @set_up(ptr noundef @__func__.test_exec_CR_ses)
  store ptr %11, ptr %8, align 8, !tbaa !17
  call void @llvm.lifetime.start.p0(i64 4, ptr %9) #4
  store i32 0, ptr %9, align 4, !tbaa !19
  %12 = load ptr, ptr %8, align 8, !tbaa !17
  %13 = icmp eq ptr %12, null
  br i1 %13, label %14, label %15

14:                                               ; preds = %3
  store i32 0, ptr %4, align 4
  store i32 1, ptr %10, align 4
  br label %48

15:                                               ; preds = %3
  %16 = load ptr, ptr %8, align 8, !tbaa !17
  %17 = getelementptr inbounds nuw %struct.test_fixture, ptr %16, i32 0, i32 3
  store i32 2, ptr %17, align 8, !tbaa !27
  %18 = load ptr, ptr %8, align 8, !tbaa !17
  %19 = getelementptr inbounds nuw %struct.test_fixture, ptr %18, i32 0, i32 1
  %20 = load ptr, ptr %19, align 8, !tbaa !29
  %21 = load i32, ptr %5, align 4, !tbaa !19
  %22 = call i32 @OSSL_CMP_CTX_set_option(ptr noundef %20, i32 noundef 25, i32 noundef %21)
  %23 = load ptr, ptr %8, align 8, !tbaa !17
  %24 = getelementptr inbounds nuw %struct.test_fixture, ptr %23, i32 0, i32 2
  %25 = load ptr, ptr %24, align 8, !tbaa !21
  %26 = load i32, ptr %6, align 4, !tbaa !19
  %27 = call i32 @OSSL_CMP_SRV_CTX_set_grant_implicit_confirm(ptr noundef %25, i32 noundef %26)
  %28 = load ptr, ptr %8, align 8, !tbaa !17
  %29 = getelementptr inbounds nuw %struct.test_fixture, ptr %28, i32 0, i32 2
  %30 = load ptr, ptr %29, align 8, !tbaa !21
  %31 = load i32, ptr %7, align 4, !tbaa !19
  %32 = icmp ne i32 %31, 0
  %33 = select i1 %32, i32 24, i32 -1
  %34 = call i32 @ossl_cmp_mock_srv_set_sendError(ptr noundef %30, i32 noundef %33)
  %35 = load i32, ptr %7, align 4, !tbaa !19
  %36 = icmp ne i32 %35, 0
  %37 = select i1 %36, i32 2, i32 0
  %38 = load ptr, ptr %8, align 8, !tbaa !17
  %39 = getelementptr inbounds nuw %struct.test_fixture, ptr %38, i32 0, i32 4
  store i32 %37, ptr %39, align 4, !tbaa !26
  %40 = load ptr, ptr %8, align 8, !tbaa !17
  %41 = icmp ne ptr %40, null
  br i1 %41, label %42, label %46

42:                                               ; preds = %15
  %43 = load ptr, ptr %8, align 8, !tbaa !17
  %44 = call i32 @execute_exec_certrequest_ses_test(ptr noundef %43)
  store i32 %44, ptr %9, align 4, !tbaa !19
  %45 = load ptr, ptr %8, align 8, !tbaa !17
  call void @tear_down(ptr noundef %45)
  br label %46

46:                                               ; preds = %42, %15
  %47 = load i32, ptr %9, align 4, !tbaa !19
  store i32 %47, ptr %4, align 4
  store i32 1, ptr %10, align 4
  br label %48

48:                                               ; preds = %46, %14
  call void @llvm.lifetime.end.p0(i64 4, ptr %9) #4
  call void @llvm.lifetime.end.p0(i64 8, ptr %8) #4
  %49 = load i32, ptr %4, align 4
  ret i32 %49
}