; Function Attrs: nounwind uwtable
define internal fastcc i32 @test_exec_CR_ses(i32 noundef range(i32 0, 2) %0, i32 noundef range(i32 0, 2) %1, i32 noundef range(i32 0, 2) %2) unnamed_addr #0 {
  %4 = tail call fastcc ptr @set_up(ptr noundef nonnull @__func__.test_exec_CR_ses)
  %5 = icmp eq ptr %4, null
  br i1 %5, label %24, label %6

6:                                                ; preds = %3
  %7 = getelementptr inbounds nuw i8, ptr %4, i64 24
  store i32 2, ptr %7, align 8, !tbaa !26
  %8 = getelementptr inbounds nuw i8, ptr %4, i64 8
  %9 = load ptr, ptr %8, align 8, !tbaa !23
  %10 = tail call i32 @OSSL_CMP_CTX_set_option(ptr noundef %9, i32 noundef 25, i32 noundef %0) #4
  %11 = getelementptr inbounds nuw i8, ptr %4, i64 16
  %12 = load ptr, ptr %11, align 8, !tbaa !24
  %13 = tail call i32 @OSSL_CMP_SRV_CTX_set_grant_implicit_confirm(ptr noundef %12, i32 noundef %1) #4
  %14 = load ptr, ptr %11, align 8, !tbaa !24
  %.not = icmp eq i32 %2, 0
  %15 = select i1 %.not, i32 -1, i32 24
  %16 = tail call i32 @ossl_cmp_mock_srv_set_sendError(ptr noundef %14, i32 noundef %15) #4
  %17 = select i1 %.not, i32 0, i32 2
  %18 = getelementptr inbounds nuw i8, ptr %4, i64 28
  store i32 %17, ptr %18, align 4, !tbaa !17
  %19 = tail call fastcc i32 @execute_exec_certrequest_ses_test(ptr noundef %4)
  %20 = load ptr, ptr %8, align 8, !tbaa !23
  tail call void @OSSL_CMP_CTX_free(ptr noundef %20) #4
  %21 = load ptr, ptr %11, align 8, !tbaa !24
  tail call void @ossl_cmp_mock_srv_free(ptr noundef %21) #4
  %22 = getelementptr inbounds nuw i8, ptr %4, i64 32
  %23 = load ptr, ptr %22, align 8, !tbaa !25
  tail call void @OPENSSL_sk_free(ptr noundef %23) #4
  tail call void @CRYPTO_free(ptr noundef nonnull %4, ptr noundef nonnull @.str.14, i32 noundef 51) #4
  br label %24

24:                                               ; preds = %3, %6
  %.014 = phi i32 [ %19, %6 ], [ 0, %3 ]
  ret i32 %.014
}